target datalayout = "e-m:e-p270:32:32-p271:32:32-p272:64:64-i64:64-i128:128-f80:128-n8:16:32:64-S128"
target triple = "x86_64-pc-linux-gnu"

%struct.http2_session_data = type { ptr, ptr, ptr, ptr }
%struct.http2_stream_data = type { ptr, ptr, ptr, ptr, i64, i64, i32 }

@stdout = external global ptr, align 8

; Function Attrs: nounwind uwtable
define internal i32 @on_data_chunk_recv_callback(ptr noundef %0, i8 noundef zeroext %1, i32 noundef %2, ptr noundef %3, i64 noundef %4, ptr noundef %5) #0 {
  %7 = alloca ptr, align 8
  %8 = alloca i8, align 1
  %9 = alloca i32, align 4
  %10 = alloca ptr, align 8
  %11 = alloca i64, align 8
  %12 = alloca ptr, align 8
  %13 = alloca ptr, align 8
  store ptr %0, ptr %7, align 8, !tbaa !63
  store i8 %1, ptr %8, align 1, !tbaa !14
  store i32 %2, ptr %9, align 4, !tbaa !4
  store ptr %3, ptr %10, align 8, !tbaa !15
  store i64 %4, ptr %11, align 8, !tbaa !38
  store ptr %5, ptr %12, align 8, !tbaa !29
  call void @llvm.lifetime.start.p0(i64 8, ptr %13) #10
  %14 = load ptr, ptr %12, align 8, !tbaa !29
  store ptr %14, ptr %13, align 8, !tbaa !29
  %15 = load ptr, ptr %13, align 8, !tbaa !29
  %16 = getelementptr inbounds nuw %struct.http2_session_data, ptr %15, i32 0, i32 3
  %17 = load ptr, ptr %16, align 8, !tbaa !30
  %18 = getelementptr inbounds nuw %struct.http2_stream_data, ptr %17, i32 0, i32 6
  %19 = load i32, ptr %18, align 8, !tbaa !43
  %20 = load i32, ptr %9, align 4, !tbaa !4
  %21 = icmp eq i32 %19, %20
  br i1 %21, label %22, label %27

22:                                               ; preds = %6
  %23 = load ptr, ptr %10, align 8, !tbaa !15
  %24 = load i64, ptr %11, align 8, !tbaa !38
  %25 = load ptr, ptr @stdout, align 8, !tbaa !12
  %26 = call i64 @fwrite(ptr noundef %23, i64 noundef 1, i64 noundef %24, ptr noundef %25)
  br label %27

27:                                               ; preds = %22, %6
  call void @llvm.lifetime.end.p0(i64 8, ptr %13) #10
  ret i32 0
}