; Function Attrs: nofree nounwind uwtable
define internal noundef i32 @on_data_chunk_recv_callback(ptr readnone captures(none) %0, i8 zeroext %1, i32 noundef %2, ptr noundef captures(none) %3, i64 noundef %4, ptr noundef readonly captures(none) %5) #14 {
  %7 = getelementptr inbounds nuw i8, ptr %5, i64 24
  %8 = load ptr, ptr %7, align 8, !tbaa !35
  %9 = getelementptr inbounds nuw i8, ptr %8, i64 48
  %10 = load i32, ptr %9, align 8, !tbaa !29
  %11 = icmp eq i32 %10, %2
  br i1 %11, label %12, label %15

12:                                               ; preds = %6
  %13 = load ptr, ptr @stdout, align 8, !tbaa !4
  %14 = tail call i64 @fwrite(ptr noundef %3, i64 noundef 1, i64 noundef %4, ptr noundef %13)
  br label %15

15:                                               ; preds = %12, %6
  ret i32 0
}